; Function Attrs: mustprogress uwtable
define void @_ZN5Yosys5RTLIL9const_mulERKNS0_5ConstES3_bbi(ptr dead_on_unwind noalias writable sret(%"struct.Yosys::RTLIL::Const") align 8 %0, ptr noundef nonnull align 8 dereferenceable(40) %1, ptr noundef nonnull align 8 dereferenceable(40) %2, i1 noundef zeroext %3, i1 noundef zeroext %4, i32 noundef %5) local_unnamed_addr #3 personality ptr @__gxx_personality_v0 {
  %7 = alloca i32, align 4
  %8 = alloca %class.BigInteger, align 8
  %9 = alloca %class.BigInteger, align 8
  %10 = alloca %class.BigInteger, align 8
  call void @llvm.lifetime.start.p0(i64 4, ptr nonnull %7) #19
  store i32 -1, ptr %7, align 4, !tbaa !29
  call void @llvm.lifetime.start.p0(i64 24, ptr nonnull %8) #19
  call void @llvm.lifetime.start.p0(i64 24, ptr nonnull %9) #19
  call fastcc void @_ZN5YosysL9const2bigERKNS_5RTLIL5ConstEbRi(ptr dead_on_unwind noalias writable align 8 %9, ptr noundef nonnull align 8 dereferenceable(40) %1, i1 noundef zeroext %3, ptr noundef nonnull align 4 dereferenceable(4) %7)
  call void @llvm.lifetime.start.p0(i64 24, ptr nonnull %10) #19
  invoke fastcc void @_ZN5YosysL9const2bigERKNS_5RTLIL5ConstEbRi(ptr dead_on_unwind noalias writable align 8 %10, ptr noundef nonnull align 8 dereferenceable(40) %2, i1 noundef zeroext %4, ptr noundef nonnull align 4 dereferenceable(4) %7)
          to label %11 unwind label %39

11:                                               ; preds = %6
  store i32 0, ptr %8, align 8, !tbaa !31, !alias.scope !67
  %12 = getelementptr inbounds nuw i8, ptr %8, i64 8
  call void @llvm.memset.p0.i64(ptr noundef nonnull align 8 dereferenceable(16) %12, i8 0, i64 16, i1 false), !alias.scope !67
  invoke void @_ZN10BigInteger8multiplyERKS_S1_(ptr noundef nonnull align 8 dereferenceable(24) %8, ptr noundef nonnull align 8 dereferenceable(24) %9, ptr noundef nonnull align 8 dereferenceable(24) %10)
          to label %_ZNK10BigIntegermlERKS_.exit unwind label %13

13:                                               ; preds = %11
  %14 = landingpad { ptr, i32 }
          cleanup
  %15 = getelementptr inbounds nuw i8, ptr %8, i64 16
  %16 = load ptr, ptr %15, align 8, !tbaa !38, !alias.scope !67
  %17 = icmp eq ptr %16, null
  br i1 %17, label %.body, label %18

18:                                               ; preds = %13
  call void @_ZdaPv(ptr noundef nonnull %16) #22
  br label %.body

_ZNK10BigIntegermlERKS_.exit:                     ; preds = %11
  %19 = getelementptr inbounds nuw i8, ptr %10, i64 16
  %20 = load ptr, ptr %19, align 8, !tbaa !38
  %21 = icmp eq ptr %20, null
  br i1 %21, label %_ZN10BigIntegerD2Ev.exit, label %22

22:                                               ; preds = %_ZNK10BigIntegermlERKS_.exit
  call void @_ZdaPv(ptr noundef nonnull %20) #22
  br label %_ZN10BigIntegerD2Ev.exit

_ZN10BigIntegerD2Ev.exit:                         ; preds = %_ZNK10BigIntegermlERKS_.exit, %22
  call void @llvm.lifetime.end.p0(i64 24, ptr nonnull %10) #19
  %23 = getelementptr inbounds nuw i8, ptr %9, i64 16
  %24 = load ptr, ptr %23, align 8, !tbaa !38
  %25 = icmp eq ptr %24, null
  br i1 %25, label %_ZN10BigIntegerD2Ev.exit19, label %26

26:                                               ; preds = %_ZN10BigIntegerD2Ev.exit
  call void @_ZdaPv(ptr noundef nonnull %24) #22
  br label %_ZN10BigIntegerD2Ev.exit19

_ZN10BigIntegerD2Ev.exit19:                       ; preds = %_ZN10BigIntegerD2Ev.exit, %26
  call void @llvm.lifetime.end.p0(i64 24, ptr nonnull %9) #19
  %27 = icmp sgt i32 %5, -1
  br i1 %27, label %31, label %28

28:                                               ; preds = %_ZN10BigIntegerD2Ev.exit19
  %29 = invoke noundef i32 @_ZNK5Yosys5RTLIL5Const4sizeEv(ptr noundef nonnull align 8 dereferenceable(40) %1)
          to label %_ZN5Yosys7GetSizeINS_5RTLIL5ConstEEEiRKT_.exit unwind label %49

_ZN5Yosys7GetSizeINS_5RTLIL5ConstEEEiRKT_.exit:   ; preds = %28
  %30 = invoke noundef i32 @_ZNK5Yosys5RTLIL5Const4sizeEv(ptr noundef nonnull align 8 dereferenceable(40) %2)
          to label %_ZN5Yosys7GetSizeINS_5RTLIL5ConstEEEiRKT_.exit20 unwind label %51

_ZN5Yosys7GetSizeINS_5RTLIL5ConstEEEiRKT_.exit20: ; preds = %_ZN5Yosys7GetSizeINS_5RTLIL5ConstEEEiRKT_.exit
  %.sroa.speculated28 = call i32 @llvm.smax.i32(i32 %29, i32 %30)
  br label %31

31:                                               ; preds = %_ZN10BigIntegerD2Ev.exit19, %_ZN5Yosys7GetSizeINS_5RTLIL5ConstEEEiRKT_.exit20
  %32 = phi i32 [ %.sroa.speculated28, %_ZN5Yosys7GetSizeINS_5RTLIL5ConstEEEiRKT_.exit20 ], [ %5, %_ZN10BigIntegerD2Ev.exit19 ]
  %33 = load i32, ptr %7, align 4, !tbaa !29
  %.sroa.speculated = call i32 @llvm.smin.i32(i32 %33, i32 0)
  invoke fastcc void @_ZN5YosysL9big2constERK10BigIntegerii(ptr dead_on_unwind noalias writable align 8 %0, ptr noundef nonnull align 8 dereferenceable(24) %8, i32 noundef %32, i32 noundef %.sroa.speculated)
          to label %34 unwind label %53

34:                                               ; preds = %31
  %35 = getelementptr inbounds nuw i8, ptr %8, i64 16
  %36 = load ptr, ptr %35, align 8, !tbaa !38
  %37 = icmp eq ptr %36, null
  br i1 %37, label %_ZN10BigIntegerD2Ev.exit22, label %38

38:                                               ; preds = %34
  call void @_ZdaPv(ptr noundef nonnull %36) #22
  br label %_ZN10BigIntegerD2Ev.exit22

_ZN10BigIntegerD2Ev.exit22:                       ; preds = %34, %38
  call void @llvm.lifetime.end.p0(i64 24, ptr nonnull %8) #19
  call void @llvm.lifetime.end.p0(i64 4, ptr nonnull %7) #19
  ret void

39:                                               ; preds = %6
  %40 = landingpad { ptr, i32 }
          cleanup
  br label %_ZN10BigIntegerD2Ev.exit23

.body:                                            ; preds = %13, %18
  %41 = getelementptr inbounds nuw i8, ptr %10, i64 16
  %42 = load ptr, ptr %41, align 8, !tbaa !38
  %43 = icmp eq ptr %42, null
  br i1 %43, label %_ZN10BigIntegerD2Ev.exit23, label %44

44:                                               ; preds = %.body
  call void @_ZdaPv(ptr noundef nonnull %42) #22
  br label %_ZN10BigIntegerD2Ev.exit23

_ZN10BigIntegerD2Ev.exit23:                       ; preds = %44, %.body, %39
  %.pn = phi { ptr, i32 } [ %40, %39 ], [ %14, %.body ], [ %14, %44 ]
  call void @llvm.lifetime.end.p0(i64 24, ptr nonnull %10) #19
  %45 = getelementptr inbounds nuw i8, ptr %9, i64 16
  %46 = load ptr, ptr %45, align 8, !tbaa !38
  %47 = icmp eq ptr %46, null
  br i1 %47, label %_ZN10BigIntegerD2Ev.exit24, label %48

48:                                               ; preds = %_ZN10BigIntegerD2Ev.exit23
  call void @_ZdaPv(ptr noundef nonnull %46) #22
  br label %_ZN10BigIntegerD2Ev.exit24

_ZN10BigIntegerD2Ev.exit24:                       ; preds = %_ZN10BigIntegerD2Ev.exit23, %48
  call void @llvm.lifetime.end.p0(i64 24, ptr nonnull %9) #19
  br label %_ZN10BigIntegerD2Ev.exit25

49:                                               ; preds = %28
  %50 = landingpad { ptr, i32 }
          cleanup
  br label %55

51:                                               ; preds = %_ZN5Yosys7GetSizeINS_5RTLIL5ConstEEEiRKT_.exit
  %52 = landingpad { ptr, i32 }
          cleanup
  br label %55

53:                                               ; preds = %31
  %54 = landingpad { ptr, i32 }
          cleanup
  br label %55

55:                                               ; preds = %51, %53, %49
  %.pn15.pn = phi { ptr, i32 } [ %50, %49 ], [ %54, %53 ], [ %52, %51 ]
  %56 = getelementptr inbounds nuw i8, ptr %8, i64 16
  %57 = load ptr, ptr %56, align 8, !tbaa !38
  %58 = icmp eq ptr %57, null
  br i1 %58, label %_ZN10BigIntegerD2Ev.exit25, label %59

59:                                               ; preds = %55
  call void @_ZdaPv(ptr noundef nonnull %57) #22
  br label %_ZN10BigIntegerD2Ev.exit25

_ZN10BigIntegerD2Ev.exit25:                       ; preds = %59, %55, %_ZN10BigIntegerD2Ev.exit24
  %.pn15.pn.pn = phi { ptr, i32 } [ %.pn, %_ZN10BigIntegerD2Ev.exit24 ], [ %.pn15.pn, %55 ], [ %.pn15.pn, %59 ]
  call void @llvm.lifetime.end.p0(i64 24, ptr nonnull %8) #19
  call void @llvm.lifetime.end.p0(i64 4, ptr nonnull %7) #19
  resume { ptr, i32 } %.pn15.pn.pn
}